target datalayout = "e-m:e-p270:32:32-p271:32:32-p272:64:64-i64:64-i128:128-f80:128-n8:16:32:64-S128"
target triple = "x86_64-pc-linux-gnu"

; Function Attrs: nounwind uwtable
define i32 @lv_clamp_height(i32 noundef %0, i32 noundef %1, i32 noundef %2, i32 noundef %3) #0 {
  %5 = alloca i32, align 4
  %6 = alloca i32, align 4
  %7 = alloca i32, align 4
  %8 = alloca i32, align 4
  store i32 %0, ptr %5, align 4, !tbaa !7
  store i32 %1, ptr %6, align 4, !tbaa !7
  store i32 %2, ptr %7, align 4, !tbaa !7
  store i32 %3, ptr %8, align 4, !tbaa !7
  %9 = load i32, ptr %6, align 4, !tbaa !7
  %10 = and i32 %9, 1610612736
  %11 = icmp eq i32 %10, 536870912
  br i1 %11, label %12, label %32

12:                                               ; preds = %4
  %13 = load i32, ptr %6, align 4, !tbaa !7
  %14 = and i32 %13, -1610612737
  %15 = icmp sle i32 %14, 536870910
  br i1 %15, label %16, label %32

16:                                               ; preds = %12
  %17 = load i32, ptr %8, align 4, !tbaa !7
  %18 = load i32, ptr %6, align 4, !tbaa !7
  %19 = and i32 %18, -1610612737
  %20 = icmp sgt i32 %19, 268435455
  br i1 %20, label %21, label %25

21:                                               ; preds = %16
  %22 = load i32, ptr %6, align 4, !tbaa !7
  %23 = and i32 %22, -1610612737
  %24 = sub nsw i32 268435455, %23
  br label %28

25:                                               ; preds = %16
  %26 = load i32, ptr %6, align 4, !tbaa !7
  %27 = and i32 %26, -1610612737
  br label %28

28:                                               ; preds = %25, %21
  %29 = phi i32 [ %24, %21 ], [ %27, %25 ]
  %30 = mul nsw i32 %17, %29
  %31 = sdiv i32 %30, 100
  store i32 %31, ptr %6, align 4, !tbaa !7
  br label %32

32:                                               ; preds = %28, %12, %4
  %33 = load i32, ptr %7, align 4, !tbaa !7
  %34 = and i32 %33, 1610612736
  %35 = icmp eq i32 %34, 536870912
  br i1 %35, label %36, label %56

36:                                               ; preds = %32
  %37 = load i32, ptr %7, align 4, !tbaa !7
  %38 = and i32 %37, -1610612737
  %39 = icmp sle i32 %38, 536870910
  br i1 %39, label %40, label %56

40:                                               ; preds = %36
  %41 = load i32, ptr %8, align 4, !tbaa !7
  %42 = load i32, ptr %7, align 4, !tbaa !7
  %43 = and i32 %42, -1610612737
  %44 = icmp sgt i32 %43, 268435455
  br i1 %44, label %45, label %49

45:                                               ; preds = %40
  %46 = load i32, ptr %7, align 4, !tbaa !7
  %47 = and i32 %46, -1610612737
  %48 = sub nsw i32 268435455, %47
  br label %52

49:                                               ; preds = %40
  %50 = load i32, ptr %7, align 4, !tbaa !7
  %51 = and i32 %50, -1610612737
  br label %52

52:                                               ; preds = %49, %45
  %53 = phi i32 [ %48, %45 ], [ %51, %49 ]
  %54 = mul nsw i32 %41, %53
  %55 = sdiv i32 %54, 100
  store i32 %55, ptr %7, align 4, !tbaa !7
  br label %56

56:                                               ; preds = %52, %36, %32
  %57 = load i32, ptr %6, align 4, !tbaa !7
  %58 = load i32, ptr %5, align 4, !tbaa !7
  %59 = load i32, ptr %7, align 4, !tbaa !7
  %60 = icmp slt i32 %58, %59
  br i1 %60, label %61, label %63

61:                                               ; preds = %56
  %62 = load i32, ptr %5, align 4, !tbaa !7
  br label %65

63:                                               ; preds = %56
  %64 = load i32, ptr %7, align 4, !tbaa !7
  br label %65

65:                                               ; preds = %63, %61
  %66 = phi i32 [ %62, %61 ], [ %64, %63 ]
  %67 = icmp sgt i32 %57, %66
  br i1 %67, label %68, label %70

68:                                               ; preds = %65
  %69 = load i32, ptr %6, align 4, !tbaa !7
  br label %80

70:                                               ; preds = %65
  %71 = load i32, ptr %5, align 4, !tbaa !7
  %72 = load i32, ptr %7, align 4, !tbaa !7
  %73 = icmp slt i32 %71, %72
  br i1 %73, label %74, label %76

74:                                               ; preds = %70
  %75 = load i32, ptr %5, align 4, !tbaa !7
  br label %78

76:                                               ; preds = %70
  %77 = load i32, ptr %7, align 4, !tbaa !7
  br label %78

78:                                               ; preds = %76, %74
  %79 = phi i32 [ %75, %74 ], [ %77, %76 ]
  br label %80

80:                                               ; preds = %78, %68
  %81 = phi i32 [ %69, %68 ], [ %79, %78 ]
  ret i32 %81
}